target datalayout = "e-m:e-p270:32:32-p271:32:32-p272:64:64-i64:64-i128:128-f80:128-n8:16:32:64-S128"
target triple = "x86_64-pc-linux-gnu"

@.str.4 = private unnamed_addr constant [5 x i8] c"HOME\00", align 1
@.str.22 = private unnamed_addr constant [16 x i8] c"XDG_CONFIG_HOME\00", align 1
@.str.23 = private unnamed_addr constant [9 x i8] c"%s/%s/%s\00", align 1
@.str.24 = private unnamed_addr constant [17 x i8] c"%s/.config/%s/%s\00", align 1
@.str.25 = private unnamed_addr constant [4 x i8] c"git\00", align 1

; Function Attrs: nounwind uwtable
define dso_local ptr @xdg_config_home_for(ptr noundef %0, ptr noundef %1) #0 {
  %3 = alloca ptr, align 8
  %4 = alloca ptr, align 8
  %5 = alloca ptr, align 8
  %6 = alloca ptr, align 8
  %7 = alloca ptr, align 8
  %8 = alloca i32, align 4
  store ptr %0, ptr %4, align 8, !tbaa !43
  store ptr %1, ptr %5, align 8, !tbaa !43
  call void @llvm.lifetime.start.p0(i64 8, ptr %6) #12
  call void @llvm.lifetime.start.p0(i64 8, ptr %7) #12
  %9 = call ptr @getenv(ptr noundef @.str.22) #12
  store ptr %9, ptr %7, align 8, !tbaa !43
  %10 = load ptr, ptr %7, align 8, !tbaa !43
  %11 = icmp ne ptr %10, null
  br i1 %11, label %12, label %22

12:                                               ; preds = %2
  %13 = load ptr, ptr %7, align 8, !tbaa !43
  %14 = load i8, ptr %13, align 1, !tbaa !18
  %15 = sext i8 %14 to i32
  %16 = icmp ne i32 %15, 0
  br i1 %16, label %17, label %22

17:                                               ; preds = %12
  %18 = load ptr, ptr %7, align 8, !tbaa !43
  %19 = load ptr, ptr %4, align 8, !tbaa !43
  %20 = load ptr, ptr %5, align 8, !tbaa !43
  %21 = call ptr (ptr, ...) @mkpathdup(ptr noundef @.str.23, ptr noundef %18, ptr noundef %19, ptr noundef %20)
  store ptr %21, ptr %3, align 8
  store i32 1, ptr %8, align 4
  br label %32

22:                                               ; preds = %12, %2
  %23 = call ptr @getenv(ptr noundef @.str.4) #12
  store ptr %23, ptr %6, align 8, !tbaa !43
  %24 = load ptr, ptr %6, align 8, !tbaa !43
  %25 = icmp ne ptr %24, null
  br i1 %25, label %26, label %31

26:                                               ; preds = %22
  %27 = load ptr, ptr %6, align 8, !tbaa !43
  %28 = load ptr, ptr %4, align 8, !tbaa !43
  %29 = load ptr, ptr %5, align 8, !tbaa !43
  %30 = call ptr (ptr, ...) @mkpathdup(ptr noundef @.str.24, ptr noundef %27, ptr noundef %28, ptr noundef %29)
  store ptr %30, ptr %3, align 8
  store i32 1, ptr %8, align 4
  br label %32

31:                                               ; preds = %22
  store ptr null, ptr %3, align 8
  store i32 1, ptr %8, align 4
  br label %32

32:                                               ; preds = %31, %26, %17
  call void @llvm.lifetime.end.p0(i64 8, ptr %7) #12
  call void @llvm.lifetime.end.p0(i64 8, ptr %6) #12
  %33 = load ptr, ptr %3, align 8
  ret ptr %33
}

; Function Attrs: nounwind uwtable
define dso_local ptr @xdg_config_home(ptr noundef %0) #0 {
  %2 = alloca ptr, align 8
  store ptr %0, ptr %2, align 8, !tbaa !43
  %3 = load ptr, ptr %2, align 8, !tbaa !43
  %4 = call ptr @xdg_config_home_for(ptr noundef @.str.25, ptr noundef %3)
  ret ptr %4
}