; Function Attrs: nounwind uwtable
define dso_local ptr @xdg_config_home(ptr noundef %0) local_unnamed_addr #3 {
  %2 = tail call ptr @getenv(ptr noundef nonnull @.str.22) #29
  %.not.i = icmp eq ptr %2, null
  br i1 %.not.i, label %7, label %3

3:                                                ; preds = %1
  %4 = load i8, ptr %2, align 1, !tbaa !14
  %.not12.i = icmp eq i8 %4, 0
  br i1 %.not12.i, label %7, label %5

5:                                                ; preds = %3
  %6 = tail call ptr (ptr, ...) @mkpathdup(ptr noundef nonnull @.str.23, ptr noundef nonnull %2, ptr noundef nonnull @.str.25, ptr noundef %0)
  br label %xdg_config_home_for.exit

7:                                                ; preds = %3, %1
  %8 = tail call ptr @getenv(ptr noundef nonnull @.str.4) #29
  %.not13.i = icmp eq ptr %8, null
  br i1 %.not13.i, label %xdg_config_home_for.exit, label %9

9:                                                ; preds = %7
  %10 = tail call ptr (ptr, ...) @mkpathdup(ptr noundef nonnull @.str.24, ptr noundef nonnull %8, ptr noundef nonnull @.str.25, ptr noundef %0)
  br label %xdg_config_home_for.exit

xdg_config_home_for.exit:                         ; preds = %5, %7, %9
  %.0.i = phi ptr [ %6, %5 ], [ %10, %9 ], [ null, %7 ]
  ret ptr %.0.i
}